target datalayout = "e-m:e-p270:32:32-p271:32:32-p272:64:64-i64:64-i128:128-f80:128-n8:16:32:64-S128"
target triple = "x86_64-pc-linux-gnu"

%struct.FunctionCallInfoBaseData = type { ptr, ptr, ptr, i32, i8, i16, [0 x %struct.NullableDatum] }
%struct.NullableDatum = type { i64, i8 }
%struct.FmgrInfo = type { ptr, i32, i16, i8, i8, i8, ptr, ptr, ptr }
%struct.ReturnSetInfo = type { i32, ptr, ptr, i32, i32, i32, ptr, ptr }
%struct.FuncCallContext = type { i64, i64, ptr, ptr, ptr, ptr }
%struct.List = type { i32, i32, i32, ptr, [0 x %union.ListCell] }
%union.ListCell = type { ptr }

@CurrentMemoryContext = external global ptr, align 8

; Function Attrs: inlinehint nounwind uwtable
define internal ptr @list_nth_cell(ptr noundef %0, i32 noundef %1) #2 {
  %3 = alloca ptr, align 8
  %4 = alloca i32, align 4
  store ptr %0, ptr %3, align 8
  store i32 %1, ptr %4, align 4
  %5 = load ptr, ptr %3, align 8
  %6 = getelementptr inbounds nuw %struct.List, ptr %5, i32 0, i32 3
  %7 = load ptr, ptr %6, align 8
  %8 = load i32, ptr %4, align 4
  %9 = sext i32 %8 to i64
  %10 = getelementptr inbounds %union.ListCell, ptr %7, i64 %9
  ret ptr %10
}

; Function Attrs: inlinehint nounwind uwtable
define internal i64 @ObjectIdGetDatum(i32 noundef %0) #2 {
  %2 = alloca i32, align 4
  store i32 %0, ptr %2, align 4
  %3 = load i32, ptr %2, align 4
  %4 = zext i32 %3 to i64
  ret i64 %4
}

; Function Attrs: inlinehint nounwind uwtable
define internal i32 @list_nth_oid(ptr noundef %0, i32 noundef %1) #2 {
  %3 = alloca ptr, align 8
  %4 = alloca i32, align 4
  store ptr %0, ptr %3, align 8
  store i32 %1, ptr %4, align 4
  %5 = load ptr, ptr %3, align 8
  %6 = load i32, ptr %4, align 4
  %7 = call ptr @list_nth_cell(ptr noundef %5, i32 noundef %6)
  %8 = load i32, ptr %7, align 8
  ret i32 %8
}

; Function Attrs: inlinehint nounwind uwtable
define internal i32 @list_length(ptr noundef %0) #2 {
  %2 = alloca ptr, align 8
  store ptr %0, ptr %2, align 8
  %3 = load ptr, ptr %2, align 8
  %4 = icmp ne ptr %3, null
  br i1 %4, label %5, label %9

5:                                                ; preds = %1
  %6 = load ptr, ptr %2, align 8
  %7 = getelementptr inbounds nuw %struct.List, ptr %6, i32 0, i32 1
  %8 = load i32, ptr %7, align 4
  br label %10

9:                                                ; preds = %1
  br label %10

10:                                               ; preds = %9, %5
  %11 = phi i32 [ %8, %5 ], [ 0, %9 ]
  ret i32 %11
}

; Function Attrs: inlinehint nounwind uwtable
define internal ptr @MemoryContextSwitchTo(ptr noundef %0) #2 {
  %2 = alloca ptr, align 8
  %3 = alloca ptr, align 8
  store ptr %0, ptr %2, align 8
  call void @llvm.lifetime.start.p0(i64 8, ptr %3) #6
  %4 = load ptr, ptr @CurrentMemoryContext, align 8
  store ptr %4, ptr %3, align 8
  %5 = load ptr, ptr %2, align 8
  store ptr %5, ptr @CurrentMemoryContext, align 8
  %6 = load ptr, ptr %3, align 8
  call void @llvm.lifetime.end.p0(i64 8, ptr %3) #6
  ret ptr %6
}

; Function Attrs: nounwind uwtable
define internal zeroext i1 @check_rel_can_be_partition(i32 noundef %0) #0 {
  %2 = alloca i1, align 1
  %3 = alloca i32, align 4
  %4 = alloca i8, align 1
  %5 = alloca i8, align 1
  %6 = alloca i32, align 4
  store i32 %0, ptr %3, align 4
  call void @llvm.lifetime.start.p0(i64 1, ptr %4) #6
  call void @llvm.lifetime.start.p0(i64 1, ptr %5) #6
  %7 = load i32, ptr %3, align 4
  %8 = call i64 @ObjectIdGetDatum(i32 noundef %7)
  %9 = call zeroext i1 @SearchSysCacheExists(i32 noundef 57, i64 noundef %8, i64 noundef 0, i64 noundef 0, i64 noundef 0)
  br i1 %9, label %11, label %10

10:                                               ; preds = %1
  store i1 false, ptr %2, align 1
  store i32 1, ptr %6, align 4
  br label %29

11:                                               ; preds = %1
  %12 = load i32, ptr %3, align 4
  %13 = call signext i8 @get_rel_relkind(i32 noundef %12)
  store i8 %13, ptr %4, align 1
  %14 = load i32, ptr %3, align 4
  %15 = call zeroext i1 @get_rel_relispartition(i32 noundef %14)
  %16 = zext i1 %15 to i8
  store i8 %16, ptr %5, align 1
  %17 = load i8, ptr %5, align 1, !range !6, !noundef !7
  %18 = trunc i8 %17 to i1
  br i1 %18, label %28, label %19

19:                                               ; preds = %11
  %20 = load i8, ptr %4, align 1
  %21 = sext i8 %20 to i32
  %22 = icmp eq i32 %21, 112
  br i1 %22, label %28, label %23

23:                                               ; preds = %19
  %24 = load i8, ptr %4, align 1
  %25 = sext i8 %24 to i32
  %26 = icmp eq i32 %25, 73
  br i1 %26, label %28, label %27

27:                                               ; preds = %23
  store i1 false, ptr %2, align 1
  store i32 1, ptr %6, align 4
  br label %29

28:                                               ; preds = %23, %19, %11
  store i1 true, ptr %2, align 1
  store i32 1, ptr %6, align 4
  br label %29

29:                                               ; preds = %28, %27, %10
  call void @llvm.lifetime.end.p0(i64 1, ptr %5) #6
  call void @llvm.lifetime.end.p0(i64 1, ptr %4) #6
  %30 = load i1, ptr %2, align 1
  ret i1 %30
}

; Function Attrs: inlinehint nounwind uwtable
define internal i32 @DatumGetObjectId(i64 noundef %0) #2 {
  %2 = alloca i64, align 8
  store i64 %0, ptr %2, align 8
  %3 = load i64, ptr %2, align 8
  %4 = trunc i64 %3 to i32
  ret i32 %4
}

; Function Attrs: nounwind uwtable
define dso_local i64 @pg_partition_ancestors(ptr noundef %0) #0 {
  %2 = alloca i64, align 8
  %3 = alloca ptr, align 8
  %4 = alloca i32, align 4
  %5 = alloca ptr, align 8
  %6 = alloca ptr, align 8
  %7 = alloca ptr, align 8
  %8 = alloca ptr, align 8
  %9 = alloca i32, align 4
  %10 = alloca i32, align 4
  %11 = alloca ptr, align 8
  %12 = alloca ptr, align 8
  store ptr %0, ptr %3, align 8
  call void @llvm.lifetime.start.p0(i64 4, ptr %4) #6
  %13 = load ptr, ptr %3, align 8
  %14 = getelementptr inbounds nuw %struct.FunctionCallInfoBaseData, ptr %13, i32 0, i32 6
  %15 = getelementptr inbounds [0 x %struct.NullableDatum], ptr %14, i64 0, i64 0
  %16 = getelementptr inbounds nuw %struct.NullableDatum, ptr %15, i32 0, i32 0
  %17 = load i64, ptr %16, align 8
  %18 = call i32 @DatumGetObjectId(i64 noundef %17)
  store i32 %18, ptr %4, align 4
  call void @llvm.lifetime.start.p0(i64 8, ptr %5) #6
  call void @llvm.lifetime.start.p0(i64 8, ptr %6) #6
  %19 = load ptr, ptr %3, align 8
  %20 = getelementptr inbounds nuw %struct.FunctionCallInfoBaseData, ptr %19, i32 0, i32 0
  %21 = load ptr, ptr %20, align 8
  %22 = getelementptr inbounds nuw %struct.FmgrInfo, ptr %21, i32 0, i32 6
  %23 = load ptr, ptr %22, align 8
  %24 = icmp eq ptr %23, null
  br i1 %24, label %25, label %67

25:                                               ; preds = %1
  call void @llvm.lifetime.start.p0(i64 8, ptr %7) #6
  %26 = load ptr, ptr %3, align 8
  %27 = call ptr @init_MultiFuncCall(ptr noundef %26)
  store ptr %27, ptr %5, align 8
  %28 = load i32, ptr %4, align 4
  %29 = call zeroext i1 @check_rel_can_be_partition(i32 noundef %28)
  br i1 %29, label %49, label %30

30:                                               ; preds = %25
  br label %31

31:                                               ; preds = %30
  call void @llvm.lifetime.start.p0(i64 8, ptr %8) #6
  %32 = load ptr, ptr %3, align 8
  %33 = load ptr, ptr %5, align 8
  call void @end_MultiFuncCall(ptr noundef %32, ptr noundef %33)
  %34 = load ptr, ptr %3, align 8
  %35 = getelementptr inbounds nuw %struct.FunctionCallInfoBaseData, ptr %34, i32 0, i32 2
  %36 = load ptr, ptr %35, align 8
  store ptr %36, ptr %8, align 8
  %37 = load ptr, ptr %8, align 8
  %38 = getelementptr inbounds nuw %struct.ReturnSetInfo, ptr %37, i32 0, i32 5
  store i32 2, ptr %38, align 8
  br label %39

39:                                               ; preds = %31
  %40 = load ptr, ptr %3, align 8
  %41 = getelementptr inbounds nuw %struct.FunctionCallInfoBaseData, ptr %40, i32 0, i32 4
  store i8 1, ptr %41, align 4
  store i64 0, ptr %2, align 8
  store i32 1, ptr %9, align 4
  br label %44

42:                                               ; No predecessors!
  br label %43

43:                                               ; preds = %42
  store i32 0, ptr %9, align 4
  br label %44

44:                                               ; preds = %43, %39
  call void @llvm.lifetime.end.p0(i64 8, ptr %8) #6
  %45 = load i32, ptr %9, align 4
  switch i32 %45, label %64 [
    i32 0, label %46
  ]

46:                                               ; preds = %44
  br label %47

47:                                               ; preds = %46
  br label %48

48:                                               ; preds = %47
  br label %49

49:                                               ; preds = %48, %25
  %50 = load ptr, ptr %5, align 8
  %51 = getelementptr inbounds nuw %struct.FuncCallContext, ptr %50, i32 0, i32 4
  %52 = load ptr, ptr %51, align 8
  %53 = call ptr @MemoryContextSwitchTo(ptr noundef %52)
  store ptr %53, ptr %7, align 8
  %54 = load i32, ptr %4, align 4
  %55 = call ptr @get_partition_ancestors(i32 noundef %54)
  store ptr %55, ptr %6, align 8
  %56 = load i32, ptr %4, align 4
  %57 = load ptr, ptr %6, align 8
  %58 = call ptr @lcons_oid(i32 noundef %56, ptr noundef %57)
  store ptr %58, ptr %6, align 8
  %59 = load ptr, ptr %6, align 8
  %60 = load ptr, ptr %5, align 8
  %61 = getelementptr inbounds nuw %struct.FuncCallContext, ptr %60, i32 0, i32 2
  store ptr %59, ptr %61, align 8
  %62 = load ptr, ptr %7, align 8
  %63 = call ptr @MemoryContextSwitchTo(ptr noundef %62)
  store i32 0, ptr %9, align 4
  br label %64

64:                                               ; preds = %49, %44
  call void @llvm.lifetime.end.p0(i64 8, ptr %7) #6
  %65 = load i32, ptr %9, align 4
  switch i32 %65, label %123 [
    i32 0, label %66
  ]

66:                                               ; preds = %64
  br label %67

67:                                               ; preds = %66, %1
  %68 = load ptr, ptr %3, align 8
  %69 = call ptr @per_MultiFuncCall(ptr noundef %68)
  store ptr %69, ptr %5, align 8
  %70 = load ptr, ptr %5, align 8
  %71 = getelementptr inbounds nuw %struct.FuncCallContext, ptr %70, i32 0, i32 2
  %72 = load ptr, ptr %71, align 8
  store ptr %72, ptr %6, align 8
  %73 = load ptr, ptr %5, align 8
  %74 = getelementptr inbounds nuw %struct.FuncCallContext, ptr %73, i32 0, i32 0
  %75 = load i64, ptr %74, align 8
  %76 = load ptr, ptr %6, align 8
  %77 = call i32 @list_length(ptr noundef %76)
  %78 = sext i32 %77 to i64
  %79 = icmp ult i64 %75, %78
  br i1 %79, label %80, label %104

80:                                               ; preds = %67
  call void @llvm.lifetime.start.p0(i64 4, ptr %10) #6
  %81 = load ptr, ptr %6, align 8
  %82 = load ptr, ptr %5, align 8
  %83 = getelementptr inbounds nuw %struct.FuncCallContext, ptr %82, i32 0, i32 0
  %84 = load i64, ptr %83, align 8
  %85 = trunc i64 %84 to i32
  %86 = call i32 @list_nth_oid(ptr noundef %81, i32 noundef %85)
  store i32 %86, ptr %10, align 4
  br label %87

87:                                               ; preds = %80
  call void @llvm.lifetime.start.p0(i64 8, ptr %11) #6
  %88 = load ptr, ptr %5, align 8
  %89 = getelementptr inbounds nuw %struct.FuncCallContext, ptr %88, i32 0, i32 0
  %90 = load i64, ptr %89, align 8
  %91 = add i64 %90, 1
  store i64 %91, ptr %89, align 8
  %92 = load ptr, ptr %3, align 8
  %93 = getelementptr inbounds nuw %struct.FunctionCallInfoBaseData, ptr %92, i32 0, i32 2
  %94 = load ptr, ptr %93, align 8
  store ptr %94, ptr %11, align 8
  %95 = load ptr, ptr %11, align 8
  %96 = getelementptr inbounds nuw %struct.ReturnSetInfo, ptr %95, i32 0, i32 5
  store i32 1, ptr %96, align 8
  %97 = load i32, ptr %10, align 4
  %98 = call i64 @ObjectIdGetDatum(i32 noundef %97)
  store i64 %98, ptr %2, align 8
  store i32 1, ptr %9, align 4
  call void @llvm.lifetime.end.p0(i64 8, ptr %11) #6
  br label %101

99:                                               ; No predecessors!
  br label %100

100:                                              ; preds = %99
  store i32 0, ptr %9, align 4
  br label %101

101:                                              ; preds = %100, %87
  call void @llvm.lifetime.end.p0(i64 4, ptr %10) #6
  %102 = load i32, ptr %9, align 4
  switch i32 %102, label %123 [
    i32 0, label %103
  ]

103:                                              ; preds = %101
  br label %104

104:                                              ; preds = %103, %67
  br label %105

105:                                              ; preds = %104
  call void @llvm.lifetime.start.p0(i64 8, ptr %12) #6
  %106 = load ptr, ptr %3, align 8
  %107 = load ptr, ptr %5, align 8
  call void @end_MultiFuncCall(ptr noundef %106, ptr noundef %107)
  %108 = load ptr, ptr %3, align 8
  %109 = getelementptr inbounds nuw %struct.FunctionCallInfoBaseData, ptr %108, i32 0, i32 2
  %110 = load ptr, ptr %109, align 8
  store ptr %110, ptr %12, align 8
  %111 = load ptr, ptr %12, align 8
  %112 = getelementptr inbounds nuw %struct.ReturnSetInfo, ptr %111, i32 0, i32 5
  store i32 2, ptr %112, align 8
  br label %113

113:                                              ; preds = %105
  %114 = load ptr, ptr %3, align 8
  %115 = getelementptr inbounds nuw %struct.FunctionCallInfoBaseData, ptr %114, i32 0, i32 4
  store i8 1, ptr %115, align 4
  store i64 0, ptr %2, align 8
  store i32 1, ptr %9, align 4
  br label %118

116:                                              ; No predecessors!
  br label %117

117:                                              ; preds = %116
  store i32 0, ptr %9, align 4
  br label %118

118:                                              ; preds = %117, %113
  call void @llvm.lifetime.end.p0(i64 8, ptr %12) #6
  %119 = load i32, ptr %9, align 4
  switch i32 %119, label %123 [
    i32 0, label %120
  ]

120:                                              ; preds = %118
  br label %121

121:                                              ; preds = %120
  br label %122

122:                                              ; preds = %121
  store i32 0, ptr %9, align 4
  br label %123

123:                                              ; preds = %122, %118, %101, %64
  call void @llvm.lifetime.end.p0(i64 8, ptr %6) #6
  call void @llvm.lifetime.end.p0(i64 8, ptr %5) #6
  call void @llvm.lifetime.end.p0(i64 4, ptr %4) #6
  %124 = load i32, ptr %9, align 4
  switch i32 %124, label %127 [
    i32 0, label %125
    i32 1, label %125
  ]

125:                                              ; preds = %123, %123
  %126 = load i64, ptr %2, align 8
  ret i64 %126

127:                                              ; preds = %123
  unreachable
}