; Function Attrs: nounwind uwtable
define dso_local range(i64 0, 4294967296) i64 @pg_partition_ancestors(ptr noundef %0) local_unnamed_addr #0 {
  %2 = getelementptr inbounds nuw i8, ptr %0, i64 32
  %3 = load i64, ptr %2, align 8
  %4 = trunc i64 %3 to i32
  %5 = load ptr, ptr %0, align 8
  %6 = getelementptr inbounds nuw i8, ptr %5, i64 24
  %7 = load ptr, ptr %6, align 8
  %8 = icmp eq ptr %7, null
  br i1 %8, label %9, label %27

9:                                                ; preds = %1
  %10 = tail call ptr @init_MultiFuncCall(ptr noundef nonnull %0) #6
  %11 = and i64 %3, 4294967295
  %12 = tail call zeroext i1 @SearchSysCacheExists(i32 noundef 57, i64 noundef %11, i64 noundef 0, i64 noundef 0, i64 noundef 0) #6
  br i1 %12, label %13, label %check_rel_can_be_partition.exit.thread42

13:                                               ; preds = %9
  %14 = tail call signext i8 @get_rel_relkind(i32 noundef %4) #6
  %15 = tail call zeroext i1 @get_rel_relispartition(i32 noundef %4) #6
  %16 = freeze i1 %15
  br i1 %16, label %.thread, label %check_rel_can_be_partition.exit

check_rel_can_be_partition.exit:                  ; preds = %13
  switch i8 %14, label %check_rel_can_be_partition.exit.thread42 [
    i8 112, label %.thread
    i8 73, label %.thread
  ]

.thread:                                          ; preds = %check_rel_can_be_partition.exit, %check_rel_can_be_partition.exit, %13
  %17 = getelementptr inbounds nuw i8, ptr %10, i64 32
  %18 = load ptr, ptr %17, align 8
  %19 = load ptr, ptr @CurrentMemoryContext, align 8
  store ptr %18, ptr @CurrentMemoryContext, align 8
  %20 = tail call ptr @get_partition_ancestors(i32 noundef %4) #6
  %21 = tail call ptr @lcons_oid(i32 noundef %4, ptr noundef %20) #6
  %22 = getelementptr inbounds nuw i8, ptr %10, i64 16
  store ptr %21, ptr %22, align 8
  store ptr %19, ptr @CurrentMemoryContext, align 8
  br label %27

check_rel_can_be_partition.exit.thread42:         ; preds = %check_rel_can_be_partition.exit, %9
  tail call void @end_MultiFuncCall(ptr noundef nonnull %0, ptr noundef %10) #6
  %23 = getelementptr inbounds nuw i8, ptr %0, i64 16
  %24 = load ptr, ptr %23, align 8
  %25 = getelementptr inbounds nuw i8, ptr %24, i64 32
  store i32 2, ptr %25, align 8
  %26 = getelementptr inbounds nuw i8, ptr %0, i64 28
  store i8 1, ptr %26, align 4
  br label %50

27:                                               ; preds = %.thread, %1
  %28 = tail call ptr @per_MultiFuncCall(ptr noundef nonnull %0) #6
  %29 = getelementptr inbounds nuw i8, ptr %28, i64 16
  %30 = load ptr, ptr %29, align 8
  %31 = load i64, ptr %28, align 8
  %.not.i = icmp eq ptr %30, null
  br i1 %.not.i, label %list_length.exit.thread, label %list_length.exit

list_length.exit:                                 ; preds = %27
  %32 = getelementptr inbounds nuw i8, ptr %30, i64 4
  %33 = load i32, ptr %32, align 4
  %34 = sext i32 %33 to i64
  %35 = icmp ult i64 %31, %34
  br i1 %35, label %36, label %list_length.exit.thread

36:                                               ; preds = %list_length.exit
  %37 = getelementptr i8, ptr %30, i64 16
  %.val = load ptr, ptr %37, align 8
  %sext = shl i64 %31, 32
  %38 = ashr exact i64 %sext, 29
  %39 = getelementptr inbounds i8, ptr %.val, i64 %38
  %40 = load i32, ptr %39, align 8
  %41 = add nuw i64 %31, 1
  store i64 %41, ptr %28, align 8
  %42 = getelementptr inbounds nuw i8, ptr %0, i64 16
  %43 = load ptr, ptr %42, align 8
  %44 = getelementptr inbounds nuw i8, ptr %43, i64 32
  store i32 1, ptr %44, align 8
  %45 = zext i32 %40 to i64
  br label %50

list_length.exit.thread:                          ; preds = %27, %list_length.exit
  tail call void @end_MultiFuncCall(ptr noundef nonnull %0, ptr noundef nonnull %28) #6
  %46 = getelementptr inbounds nuw i8, ptr %0, i64 16
  %47 = load ptr, ptr %46, align 8
  %48 = getelementptr inbounds nuw i8, ptr %47, i64 32
  store i32 2, ptr %48, align 8
  %49 = getelementptr inbounds nuw i8, ptr %0, i64 28
  store i8 1, ptr %49, align 4
  br label %50

50:                                               ; preds = %check_rel_can_be_partition.exit.thread42, %36, %list_length.exit.thread
  %.2 = phi i64 [ 0, %list_length.exit.thread ], [ %45, %36 ], [ 0, %check_rel_can_be_partition.exit.thread42 ]
  ret i64 %.2
}